target datalayout = "e-m:e-p270:32:32-p271:32:32-p272:64:64-i64:64-i128:128-f80:128-n8:16:32:64-S128"
target triple = "x86_64-pc-linux-gnu"

$_Z12jdouble_castl = comdat any

$_Z11jfloat_casti = comdat any

@_ZL11min_jdouble = internal global double 0.000000e+00, align 8
@_ZL11max_jdouble = internal global double 0.000000e+00, align 8
@_ZL10min_jfloat = internal global float 0.000000e+00, align 4
@_ZL10max_jfloat = internal global float 0.000000e+00, align 4
@llvm.global_ctors = appending global [1 x { i32, ptr, ptr }] [{ i32, ptr, ptr } { i32 65535, ptr @_GLOBAL__sub_I_zArguments_posix.cpp, ptr null }]

; Function Attrs: nounwind uwtable
define internal void @__cxx_global_var_init() #0 section ".text.startup" {
  %1 = call noundef double @_Z12jdouble_castl(i64 noundef 1)
  store double %1, ptr @_ZL11min_jdouble, align 8
  ret void
}

; Function Attrs: mustprogress nounwind uwtable
define linkonce_odr hidden noundef double @_Z12jdouble_castl(i64 noundef %0) #1 comdat {
  %2 = alloca i64, align 8
  store i64 %0, ptr %2, align 8
  %3 = load double, ptr %2, align 8
  ret double %3
}

; Function Attrs: nounwind uwtable
define internal void @__cxx_global_var_init.1() #0 section ".text.startup" {
  %1 = call noundef double @_Z12jdouble_castl(i64 noundef 9218868437227405311)
  store double %1, ptr @_ZL11max_jdouble, align 8
  ret void
}

; Function Attrs: nounwind uwtable
define internal void @__cxx_global_var_init.2() #0 section ".text.startup" {
  %1 = call noundef float @_Z11jfloat_casti(i32 noundef 1)
  store float %1, ptr @_ZL10min_jfloat, align 4
  ret void
}

; Function Attrs: mustprogress nounwind uwtable
define linkonce_odr hidden noundef float @_Z11jfloat_casti(i32 noundef %0) #1 comdat {
  %2 = alloca i32, align 4
  store i32 %0, ptr %2, align 4
  %3 = load float, ptr %2, align 4
  ret float %3
}

; Function Attrs: nounwind uwtable
define internal void @__cxx_global_var_init.3() #0 section ".text.startup" {
  %1 = call noundef float @_Z11jfloat_casti(i32 noundef 2139095039)
  store float %1, ptr @_ZL10max_jfloat, align 4
  ret void
}

; Function Attrs: mustprogress nounwind uwtable
define hidden noundef zeroext i1 @_ZN10ZArguments15is_os_supportedEv() #1 align 2 {
  ret i1 true
}

; Function Attrs: nounwind uwtable
define internal void @_GLOBAL__sub_I_zArguments_posix.cpp() #0 section ".text.startup" {
  call void @__cxx_global_var_init()
  call void @__cxx_global_var_init.1()
  call void @__cxx_global_var_init.2()
  call void @__cxx_global_var_init.3()
  ret void
}


!llvm.module.flags = !{!0, !1, !2, !3, !4, !5}

!0 = !{i32 7, !"Dwarf Version", i32 5}
!1 = !{i32 2, !"Debug Info Version", i32 3}
!2 = !{i32 1, !"wchar_size", i32 4}
!3 = !{i32 8, !"PIC Level", i32 2}
!4 = !{i32 7, !"uwtable", i32 2}
!5 = !{i32 7, !"frame-pointer", i32 2}
